cautonose.shared.state
FileSystemState
p0
(I1
(dp1
S'basin_test.py'
p2
ccopy_reg
_reconstructor
p3
(cautonose.shared.file_state
FileState
p4
c__builtin__
object
p5
Ntp6
Rp7
(dp8
S'modtime'
p9
F1329311390.0
sS'_test_results'
p10
g3
(cautonose.shared.test_result
TestResultSet
p11
g5
Ntp12
Rp13
(dp14
S'results'
p15
(lp16
g3
(cautonose.shared.test_result
TestResult
p17
g5
Ntp18
Rp19
(dp20
S'name'
p21
S'test_can_find_1_x_2 (basin_test.basin_test)'
p22
sS'outputs'
p23
(lp24
(S'stdout'
p25
Ntp26
asS'address'
p27
(S'/Users/hoodja/dev/katas/python/CodeJam2009/basin_test.py'
p28
S'basin_test'
p29
S'basin_test.test_can_find_1_x_2'
p30
tp31
sS'state'
p32
S'success'
p33
sS'attrs'
p34
(lp35
S'id'
p36
aS'state'
p37
aS'name'
p38
aS'time'
p39
aS'path'
p40
aS'address'
p41
asS'time'
p42
F1329311392.268021
sS'path'
p43
g2
sS'id'
p44
S'basin_test.basin_test.test_can_find_1_x_2'
p45
sbag3
(g17
g5
Ntp46
Rp47
(dp48
g21
S'test_can_find_1_x_2_with_one_basin (basin_test.basin_test)'
p49
sg23
(lp50
(S'stdout'
p51
Ntp52
asg27
(S'/Users/hoodja/dev/katas/python/CodeJam2009/basin_test.py'
p53
S'basin_test'
p54
S'basin_test.test_can_find_1_x_2_with_one_basin'
p55
tp56
sg32
S'success'
p57
sg34
(lp58
S'id'
p59
aS'state'
p60
aS'name'
p61
aS'time'
p62
aS'path'
p63
aS'address'
p64
asg42
F1329311392.268021
sg43
S'basin_test.py'
p65
sg44
S'basin_test.basin_test.test_can_find_1_x_2_with_one_basin'
p66
sbag3
(g17
g5
Ntp67
Rp68
(dp69
g21
S'test_can_find_basins_of_1_x_1_map (basin_test.basin_test)'
p70
sg23
(lp71
(S'stdout'
p72
Ntp73
asg27
(S'/Users/hoodja/dev/katas/python/CodeJam2009/basin_test.py'
p74
S'basin_test'
p75
S'basin_test.test_can_find_basins_of_1_x_1_map'
p76
tp77
sg32
S'success'
p78
sg34
(lp79
S'id'
p80
aS'state'
p81
aS'name'
p82
aS'time'
p83
aS'path'
p84
aS'address'
p85
asg42
F1329311392.268021
sg43
S'basin_test.py'
p86
sg44
S'basin_test.basin_test.test_can_find_basins_of_1_x_1_map'
p87
sbag3
(g17
g5
Ntp88
Rp89
(dp90
g21
S'test_can_read_another_height_and_width (basin_test.basin_test)'
p91
sg23
(lp92
(S'stdout'
p93
Ntp94
asg27
(S'/Users/hoodja/dev/katas/python/CodeJam2009/basin_test.py'
p95
S'basin_test'
p96
S'basin_test.test_can_read_another_height_and_width'
p97
tp98
sg32
S'success'
p99
sg34
(lp100
S'id'
p101
aS'state'
p102
aS'name'
p103
aS'time'
p104
aS'path'
p105
aS'address'
p106
asg42
F1329311392.268021
sg43
S'basin_test.py'
p107
sg44
S'basin_test.basin_test.test_can_read_another_height_and_width'
p108
sbag3
(g17
g5
Ntp109
Rp110
(dp111
g21
S'test_can_read_another_number_of_maps (basin_test.basin_test)'
p112
sg23
(lp113
(S'stdout'
p114
Ntp115
asg27
(S'/Users/hoodja/dev/katas/python/CodeJam2009/basin_test.py'
p116
S'basin_test'
p117
S'basin_test.test_can_read_another_number_of_maps'
p118
tp119
sg32
S'success'
p120
sg34
(lp121
S'id'
p122
aS'state'
p123
aS'name'
p124
aS'time'
p125
aS'path'
p126
aS'address'
p127
asg42
F1329311392.268021
sg43
S'basin_test.py'
p128
sg44
S'basin_test.basin_test.test_can_read_another_number_of_maps'
p129
sbag3
(g17
g5
Ntp130
Rp131
(dp132
g21
S'test_can_read_height_and_width (basin_test.basin_test)'
p133
sg23
(lp134
(S'stdout'
p135
Ntp136
asg27
(S'/Users/hoodja/dev/katas/python/CodeJam2009/basin_test.py'
p137
S'basin_test'
p138
S'basin_test.test_can_read_height_and_width'
p139
tp140
sg32
S'success'
p141
sg34
(lp142
S'id'
p143
aS'state'
p144
aS'name'
p145
aS'time'
p146
aS'path'
p147
aS'address'
p148
asg42
F1329311392.268021
sg43
S'basin_test.py'
p149
sg44
S'basin_test.basin_test.test_can_read_height_and_width'
p150
sbag3
(g17
g5
Ntp151
Rp152
(dp153
g21
S'test_can_read_number_of_maps (basin_test.basin_test)'
p154
sg23
(lp155
(S'stdout'
p156
Ntp157
asg27
(S'/Users/hoodja/dev/katas/python/CodeJam2009/basin_test.py'
p158
S'basin_test'
p159
S'basin_test.test_can_read_number_of_maps'
p160
tp161
sg32
S'success'
p162
sg34
(lp163
S'id'
p164
aS'state'
p165
aS'name'
p166
aS'time'
p167
aS'path'
p168
aS'address'
p169
asg42
F1329311392.268021
sg43
S'basin_test.py'
p170
sg44
S'basin_test.basin_test.test_can_read_number_of_maps'
p171
sbag3
(g17
g5
Ntp172
Rp173
(dp174
g21
S'test_truth (basin_test.basin_test)'
p175
sg23
(lp176
(S'stdout'
p177
Ntp178
asg27
(S'/Users/hoodja/dev/katas/python/CodeJam2009/basin_test.py'
p179
S'basin_test'
p180
S'basin_test.test_truth'
p181
tp182
sg32
S'success'
p183
sg34
(lp184
S'id'
p185
aS'state'
p186
aS'name'
p187
aS'time'
p188
aS'path'
p189
aS'address'
p190
asg42
F1329311392.268021
sg43
S'basin_test.py'
p191
sg44
S'basin_test.basin_test.test_truth'
p192
sbasbsS'dependencies'
p193
(lp194
sg43
g2
sbstp195
Rp196
.